target datalayout = "e-m:e-p270:32:32-p271:32:32-p272:64:64-i64:64-i128:128-f80:128-n8:16:32:64-S128"
target triple = "x86_64-pc-linux-gnu"

%class.Draw = type { i8, ptr, ptr, ptr, ptr, ptr, ptr, ptr, ptr, %struct.b2DebugDraw, ptr, ptr, ptr, ptr }
%struct.b2DebugDraw = type { ptr, ptr, ptr, ptr, ptr, ptr, ptr, ptr, ptr, %struct.b2AABB, i8, i8, i8, i8, i8, i8, i8, i8, i8, i8, i8, i8, ptr }
%struct.b2AABB = type { %struct.b2Vec2, %struct.b2Vec2 }
%struct.b2Vec2 = type { float, float }
%struct.b2Transform = type { %struct.b2Vec2, %struct.b2Rot }
%struct.b2Rot = type { float, float }

; Function Attrs: inlinehint mustprogress nounwind uwtable
define linkonce_odr dso_local <2 x float> @_Z14b2Rot_GetYAxis5b2Rot(<2 x float> %0) #7 comdat {
  %2 = alloca %struct.b2Vec2, align 4
  %3 = alloca %struct.b2Rot, align 4
  store <2 x float> %0, ptr %3, align 4
  %4 = getelementptr inbounds nuw %struct.b2Vec2, ptr %2, i32 0, i32 0
  %5 = getelementptr inbounds nuw %struct.b2Rot, ptr %3, i32 0, i32 1
  %6 = load float, ptr %5, align 4, !tbaa !189
  %7 = fneg float %6
  store float %7, ptr %4, align 4, !tbaa !15
  %8 = getelementptr inbounds nuw %struct.b2Vec2, ptr %2, i32 0, i32 1
  %9 = getelementptr inbounds nuw %struct.b2Rot, ptr %3, i32 0, i32 0
  %10 = load float, ptr %9, align 4, !tbaa !188
  store float %10, ptr %8, align 4, !tbaa !16
  %11 = load <2 x float>, ptr %2, align 4
  ret <2 x float> %11
}

; Function Attrs: inlinehint mustprogress nounwind uwtable
define linkonce_odr dso_local <2 x float> @_Z8b2MulAdd6b2Vec2fS_(<2 x float> %0, float noundef %1, <2 x float> %2) #7 comdat {
  %4 = alloca %struct.b2Vec2, align 4
  %5 = alloca %struct.b2Vec2, align 4
  %6 = alloca %struct.b2Vec2, align 4
  %7 = alloca float, align 4
  store <2 x float> %0, ptr %5, align 4
  store <2 x float> %2, ptr %6, align 4
  store float %1, ptr %7, align 4, !tbaa !18
  %8 = getelementptr inbounds nuw %struct.b2Vec2, ptr %4, i32 0, i32 0
  %9 = getelementptr inbounds nuw %struct.b2Vec2, ptr %5, i32 0, i32 0
  %10 = load float, ptr %9, align 4, !tbaa !15
  %11 = load float, ptr %7, align 4, !tbaa !18
  %12 = getelementptr inbounds nuw %struct.b2Vec2, ptr %6, i32 0, i32 0
  %13 = load float, ptr %12, align 4, !tbaa !15
  %14 = fmul float %11, %13
  %15 = fadd float %10, %14
  store float %15, ptr %8, align 4, !tbaa !15
  %16 = getelementptr inbounds nuw %struct.b2Vec2, ptr %4, i32 0, i32 1
  %17 = getelementptr inbounds nuw %struct.b2Vec2, ptr %5, i32 0, i32 1
  %18 = load float, ptr %17, align 4, !tbaa !16
  %19 = load float, ptr %7, align 4, !tbaa !18
  %20 = getelementptr inbounds nuw %struct.b2Vec2, ptr %6, i32 0, i32 1
  %21 = load float, ptr %20, align 4, !tbaa !16
  %22 = fmul float %19, %21
  %23 = fadd float %18, %22
  store float %23, ptr %16, align 4, !tbaa !16
  %24 = load <2 x float>, ptr %4, align 4
  ret <2 x float> %24
}

; Function Attrs: inlinehint mustprogress nounwind uwtable
define linkonce_odr dso_local <2 x float> @_Z14b2Rot_GetXAxis5b2Rot(<2 x float> %0) #7 comdat {
  %2 = alloca %struct.b2Vec2, align 4
  %3 = alloca %struct.b2Rot, align 4
  store <2 x float> %0, ptr %3, align 4
  %4 = getelementptr inbounds nuw %struct.b2Vec2, ptr %2, i32 0, i32 0
  %5 = getelementptr inbounds nuw %struct.b2Rot, ptr %3, i32 0, i32 0
  %6 = load float, ptr %5, align 4, !tbaa !188
  store float %6, ptr %4, align 4, !tbaa !15
  %7 = getelementptr inbounds nuw %struct.b2Vec2, ptr %2, i32 0, i32 1
  %8 = getelementptr inbounds nuw %struct.b2Rot, ptr %3, i32 0, i32 1
  %9 = load float, ptr %8, align 4, !tbaa !189
  store float %9, ptr %7, align 4, !tbaa !16
  %10 = load <2 x float>, ptr %2, align 4
  ret <2 x float> %10
}

; Function Attrs: mustprogress uwtable
define dso_local void @_ZN4Draw13DrawTransformE11b2Transform(ptr noundef nonnull align 8 dereferenceable(216) %0, <2 x float> %1, <2 x float> %2) #6 align 2 {
  %4 = alloca %struct.b2Transform, align 4
  %5 = alloca ptr, align 8
  %6 = alloca float, align 4
  %7 = alloca %struct.b2Vec2, align 4
  %8 = alloca %struct.b2Vec2, align 4
  %9 = alloca %struct.b2Vec2, align 4
  %10 = alloca %struct.b2Vec2, align 4
  %11 = alloca %struct.b2Rot, align 4
  %12 = alloca %struct.b2Vec2, align 4
  %13 = alloca %struct.b2Vec2, align 4
  %14 = alloca %struct.b2Vec2, align 4
  %15 = alloca %struct.b2Vec2, align 4
  %16 = alloca %struct.b2Vec2, align 4
  %17 = alloca %struct.b2Rot, align 4
  %18 = alloca %struct.b2Vec2, align 4
  %19 = alloca %struct.b2Vec2, align 4
  %20 = getelementptr inbounds nuw { <2 x float>, <2 x float> }, ptr %4, i32 0, i32 0
  store <2 x float> %1, ptr %20, align 4
  %21 = getelementptr inbounds nuw { <2 x float>, <2 x float> }, ptr %4, i32 0, i32 1
  store <2 x float> %2, ptr %21, align 4
  store ptr %0, ptr %5, align 8, !tbaa !30
  %22 = load ptr, ptr %5, align 8
  call void @llvm.lifetime.start.p0(i64 4, ptr %6) #1
  store float 0x3FC99999A0000000, ptr %6, align 4, !tbaa !18
  call void @llvm.lifetime.start.p0(i64 8, ptr %7) #1
  %23 = getelementptr inbounds nuw %struct.b2Transform, ptr %4, i32 0, i32 0
  call void @llvm.memcpy.p0.p0.i64(ptr align 4 %7, ptr align 4 %23, i64 8, i1 false), !tbaa.struct !17
  call void @llvm.lifetime.start.p0(i64 8, ptr %8) #1
  call void @llvm.memcpy.p0.p0.i64(ptr align 4 %9, ptr align 4 %7, i64 8, i1 false), !tbaa.struct !17
  %24 = getelementptr inbounds nuw %struct.b2Transform, ptr %4, i32 0, i32 1
  call void @llvm.memcpy.p0.p0.i64(ptr align 4 %11, ptr align 4 %24, i64 8, i1 false), !tbaa.struct !17
  %25 = load <2 x float>, ptr %11, align 4
  %26 = call <2 x float> @_Z14b2Rot_GetXAxis5b2Rot(<2 x float> %25)
  store <2 x float> %26, ptr %10, align 4
  %27 = load <2 x float>, ptr %9, align 4
  %28 = load <2 x float>, ptr %10, align 4
  %29 = call <2 x float> @_Z8b2MulAdd6b2Vec2fS_(<2 x float> %27, float noundef 0x3FC99999A0000000, <2 x float> %28)
  store <2 x float> %29, ptr %8, align 4
  %30 = getelementptr inbounds nuw %class.Draw, ptr %22, i32 0, i32 3
  %31 = load ptr, ptr %30, align 8, !tbaa !32
  call void @llvm.memcpy.p0.p0.i64(ptr align 4 %12, ptr align 4 %7, i64 8, i1 false), !tbaa.struct !17
  call void @llvm.memcpy.p0.p0.i64(ptr align 4 %13, ptr align 4 %8, i64 8, i1 false), !tbaa.struct !17
  %32 = load <2 x float>, ptr %12, align 4
  %33 = load <2 x float>, ptr %13, align 4
  call void @_ZN7GLLines7AddLineE6b2Vec2S0_10b2HexColor(ptr noundef nonnull align 8 dereferenceable(40) %31, <2 x float> %32, <2 x float> %33, i32 noundef 16711680)
  call void @llvm.lifetime.start.p0(i64 8, ptr %14) #1
  call void @llvm.memcpy.p0.p0.i64(ptr align 4 %15, ptr align 4 %7, i64 8, i1 false), !tbaa.struct !17
  %34 = getelementptr inbounds nuw %struct.b2Transform, ptr %4, i32 0, i32 1
  call void @llvm.memcpy.p0.p0.i64(ptr align 4 %17, ptr align 4 %34, i64 8, i1 false), !tbaa.struct !17
  %35 = load <2 x float>, ptr %17, align 4
  %36 = call <2 x float> @_Z14b2Rot_GetYAxis5b2Rot(<2 x float> %35)
  store <2 x float> %36, ptr %16, align 4
  %37 = load <2 x float>, ptr %15, align 4
  %38 = load <2 x float>, ptr %16, align 4
  %39 = call <2 x float> @_Z8b2MulAdd6b2Vec2fS_(<2 x float> %37, float noundef 0x3FC99999A0000000, <2 x float> %38)
  store <2 x float> %39, ptr %14, align 4
  call void @llvm.memcpy.p0.p0.i64(ptr align 4 %8, ptr align 4 %14, i64 8, i1 false), !tbaa.struct !17
  call void @llvm.lifetime.end.p0(i64 8, ptr %14) #1
  %40 = getelementptr inbounds nuw %class.Draw, ptr %22, i32 0, i32 3
  %41 = load ptr, ptr %40, align 8, !tbaa !32
  call void @llvm.memcpy.p0.p0.i64(ptr align 4 %18, ptr align 4 %7, i64 8, i1 false), !tbaa.struct !17
  call void @llvm.memcpy.p0.p0.i64(ptr align 4 %19, ptr align 4 %8, i64 8, i1 false), !tbaa.struct !17
  %42 = load <2 x float>, ptr %18, align 4
  %43 = load <2 x float>, ptr %19, align 4
  call void @_ZN7GLLines7AddLineE6b2Vec2S0_10b2HexColor(ptr noundef nonnull align 8 dereferenceable(40) %41, <2 x float> %42, <2 x float> %43, i32 noundef 32768)
  call void @llvm.lifetime.end.p0(i64 8, ptr %8) #1
  call void @llvm.lifetime.end.p0(i64 8, ptr %7) #1
  call void @llvm.lifetime.end.p0(i64 4, ptr %6) #1
  ret void
}

; Function Attrs: mustprogress uwtable
define dso_local void @_Z16DrawTransformFcn11b2TransformPv(<2 x float> %0, <2 x float> %1, ptr noundef %2) #6 {
  %4 = alloca %struct.b2Transform, align 4
  %5 = alloca ptr, align 8
  %6 = alloca %struct.b2Transform, align 4
  %7 = getelementptr inbounds nuw { <2 x float>, <2 x float> }, ptr %4, i32 0, i32 0
  store <2 x float> %0, ptr %7, align 4
  %8 = getelementptr inbounds nuw { <2 x float>, <2 x float> }, ptr %4, i32 0, i32 1
  store <2 x float> %1, ptr %8, align 4
  store ptr %2, ptr %5, align 8, !tbaa !29
  %9 = load ptr, ptr %5, align 8, !tbaa !29
  call void @llvm.memcpy.p0.p0.i64(ptr align 4 %6, ptr align 4 %4, i64 16, i1 false), !tbaa.struct !48
  %10 = getelementptr inbounds nuw { <2 x float>, <2 x float> }, ptr %6, i32 0, i32 0
  %11 = load <2 x float>, ptr %10, align 4
  %12 = getelementptr inbounds nuw { <2 x float>, <2 x float> }, ptr %6, i32 0, i32 1
  %13 = load <2 x float>, ptr %12, align 4
  call void @_ZN4Draw13DrawTransformE11b2Transform(ptr noundef nonnull align 8 dereferenceable(216) %9, <2 x float> %11, <2 x float> %13)
  ret void
}