; Function Attrs: mustprogress uwtable
define dso_local void @_Z16DrawTransformFcn11b2TransformPv(<2 x float> %0, <2 x float> %1, ptr noundef readonly captures(none) %2) #5 {
  %.sroa.02.0.vec.extract.i.i = extractelement <2 x float> %0, i64 0
  %.sroa.0.0.vec.extract.i.i = extractelement <2 x float> %1, i64 0
  %4 = fmul float %.sroa.0.0.vec.extract.i.i, 0x3FC99999A0000000
  %5 = fadd float %.sroa.02.0.vec.extract.i.i, %4
  %.sroa.03.0.vec.insert.i.i = insertelement <2 x float> poison, float %5, i64 0
  %.sroa.02.4.vec.extract.i.i = extractelement <2 x float> %0, i64 1
  %.sroa.0.4.vec.extract.i.i = extractelement <2 x float> %1, i64 1
  %6 = fmul float %.sroa.0.4.vec.extract.i.i, 0x3FC99999A0000000
  %7 = fadd float %.sroa.02.4.vec.extract.i.i, %6
  %.sroa.03.4.vec.insert.i.i = insertelement <2 x float> %.sroa.03.0.vec.insert.i.i, float %7, i64 1
  %8 = getelementptr inbounds nuw i8, ptr %2, i64 24
  %9 = load ptr, ptr %8, align 8, !tbaa !16
  tail call void @_ZN7GLLines7AddLineE6b2Vec2S0_10b2HexColor(ptr noundef nonnull align 8 dereferenceable(40) %9, <2 x float> %0, <2 x float> %.sroa.03.4.vec.insert.i.i, i32 noundef 16711680)
  %10 = fsub float %.sroa.02.0.vec.extract.i.i, %6
  %.sroa.03.0.vec.insert.i22.i = insertelement <2 x float> poison, float %10, i64 0
  %11 = fadd float %.sroa.02.4.vec.extract.i.i, %4
  %.sroa.03.4.vec.insert.i25.i = insertelement <2 x float> %.sroa.03.0.vec.insert.i22.i, float %11, i64 1
  %12 = load ptr, ptr %8, align 8, !tbaa !16
  tail call void @_ZN7GLLines7AddLineE6b2Vec2S0_10b2HexColor(ptr noundef nonnull align 8 dereferenceable(40) %12, <2 x float> %0, <2 x float> %.sroa.03.4.vec.insert.i25.i, i32 noundef 32768)
  ret void
}